target datalayout = "e-m:e-p270:32:32-p271:32:32-p272:64:64-i64:64-i128:128-f80:128-n8:16:32:64-S128"
target triple = "x86_64-pc-linux-gnu"

%struct.lxb_html_tokenizer = type { ptr, ptr, ptr, ptr, ptr, ptr, ptr, ptr, ptr, ptr, ptr, ptr, ptr, ptr, ptr, i64, ptr, ptr, ptr, ptr, ptr, i64, i64, ptr, ptr, i64, i64, i32, i32, i8, i32, i32, i8, ptr, i64 }
%struct.lxb_html_token_t = type { ptr, ptr, i64, i64, ptr, ptr, ptr, ptr, ptr, i64, i64, i32 }

@.str.1 = private unnamed_addr constant [3 x i8] c"--\00", align 1

; Function Attrs: nounwind uwtable
define internal i32 @lxb_html_tokenizer_temp_realloc(ptr noundef %0, i64 noundef %1) #0 {
  %3 = alloca i32, align 4
  %4 = alloca ptr, align 8
  %5 = alloca i64, align 8
  %6 = alloca i64, align 8
  %7 = alloca i64, align 8
  store ptr %0, ptr %4, align 8
  store i64 %1, ptr %5, align 8
  %8 = load ptr, ptr %4, align 8
  %9 = getelementptr inbounds %struct.lxb_html_tokenizer, ptr %8, i32 0, i32 17
  %10 = load ptr, ptr %9, align 8
  %11 = load ptr, ptr %4, align 8
  %12 = getelementptr inbounds %struct.lxb_html_tokenizer, ptr %11, i32 0, i32 16
  %13 = load ptr, ptr %12, align 8
  %14 = ptrtoint ptr %10 to i64
  %15 = ptrtoint ptr %13 to i64
  %16 = sub i64 %14, %15
  store i64 %16, ptr %6, align 8
  %17 = load ptr, ptr %4, align 8
  %18 = getelementptr inbounds %struct.lxb_html_tokenizer, ptr %17, i32 0, i32 18
  %19 = load ptr, ptr %18, align 8
  %20 = load ptr, ptr %4, align 8
  %21 = getelementptr inbounds %struct.lxb_html_tokenizer, ptr %20, i32 0, i32 16
  %22 = load ptr, ptr %21, align 8
  %23 = ptrtoint ptr %19 to i64
  %24 = ptrtoint ptr %22 to i64
  %25 = sub i64 %23, %24
  %26 = load i64, ptr %5, align 8
  %27 = add i64 %25, %26
  %28 = add i64 %27, 4096
  store i64 %28, ptr %7, align 8
  %29 = load ptr, ptr %4, align 8
  %30 = getelementptr inbounds %struct.lxb_html_tokenizer, ptr %29, i32 0, i32 16
  %31 = load ptr, ptr %30, align 8
  %32 = load i64, ptr %7, align 8
  %33 = call ptr @lexbor_realloc(ptr noundef %31, i64 noundef %32)
  %34 = load ptr, ptr %4, align 8
  %35 = getelementptr inbounds %struct.lxb_html_tokenizer, ptr %34, i32 0, i32 16
  store ptr %33, ptr %35, align 8
  %36 = load ptr, ptr %4, align 8
  %37 = getelementptr inbounds %struct.lxb_html_tokenizer, ptr %36, i32 0, i32 16
  %38 = load ptr, ptr %37, align 8
  %39 = icmp eq ptr %38, null
  br i1 %39, label %40, label %46

40:                                               ; preds = %2
  %41 = load ptr, ptr %4, align 8
  %42 = getelementptr inbounds %struct.lxb_html_tokenizer, ptr %41, i32 0, i32 31
  store i32 2, ptr %42, align 8
  %43 = load ptr, ptr %4, align 8
  %44 = getelementptr inbounds %struct.lxb_html_tokenizer, ptr %43, i32 0, i32 31
  %45 = load i32, ptr %44, align 8
  store i32 %45, ptr %3, align 4
  br label %61

46:                                               ; preds = %2
  %47 = load ptr, ptr %4, align 8
  %48 = getelementptr inbounds %struct.lxb_html_tokenizer, ptr %47, i32 0, i32 16
  %49 = load ptr, ptr %48, align 8
  %50 = load i64, ptr %6, align 8
  %51 = getelementptr inbounds i8, ptr %49, i64 %50
  %52 = load ptr, ptr %4, align 8
  %53 = getelementptr inbounds %struct.lxb_html_tokenizer, ptr %52, i32 0, i32 17
  store ptr %51, ptr %53, align 8
  %54 = load ptr, ptr %4, align 8
  %55 = getelementptr inbounds %struct.lxb_html_tokenizer, ptr %54, i32 0, i32 16
  %56 = load ptr, ptr %55, align 8
  %57 = load i64, ptr %7, align 8
  %58 = getelementptr inbounds i8, ptr %56, i64 %57
  %59 = load ptr, ptr %4, align 8
  %60 = getelementptr inbounds %struct.lxb_html_tokenizer, ptr %59, i32 0, i32 18
  store ptr %58, ptr %60, align 8
  store i32 0, ptr %3, align 4
  br label %61

61:                                               ; preds = %46, %40
  %62 = load i32, ptr %3, align 4
  ret i32 %62
}

; Function Attrs: nounwind uwtable
define internal i32 @lxb_html_tokenizer_temp_append(ptr noundef %0, ptr noundef %1, i64 noundef %2) #0 {
  %4 = alloca i32, align 4
  %5 = alloca ptr, align 8
  %6 = alloca ptr, align 8
  %7 = alloca i64, align 8
  store ptr %0, ptr %5, align 8
  store ptr %1, ptr %6, align 8
  store i64 %2, ptr %7, align 8
  %8 = load ptr, ptr %5, align 8
  %9 = getelementptr inbounds %struct.lxb_html_tokenizer, ptr %8, i32 0, i32 17
  %10 = load ptr, ptr %9, align 8
  %11 = load i64, ptr %7, align 8
  %12 = getelementptr inbounds i8, ptr %10, i64 %11
  %13 = load ptr, ptr %5, align 8
  %14 = getelementptr inbounds %struct.lxb_html_tokenizer, ptr %13, i32 0, i32 18
  %15 = load ptr, ptr %14, align 8
  %16 = icmp ugt ptr %12, %15
  br i1 %16, label %17, label %27

17:                                               ; preds = %3
  %18 = load ptr, ptr %5, align 8
  %19 = load i64, ptr %7, align 8
  %20 = call i32 @lxb_html_tokenizer_temp_realloc(ptr noundef %18, i64 noundef %19)
  %21 = icmp ne i32 %20, 0
  br i1 %21, label %22, label %26

22:                                               ; preds = %17
  %23 = load ptr, ptr %5, align 8
  %24 = getelementptr inbounds %struct.lxb_html_tokenizer, ptr %23, i32 0, i32 31
  %25 = load i32, ptr %24, align 8
  store i32 %25, ptr %4, align 4
  br label %37

26:                                               ; preds = %17
  br label %27

27:                                               ; preds = %26, %3
  %28 = load ptr, ptr %5, align 8
  %29 = getelementptr inbounds %struct.lxb_html_tokenizer, ptr %28, i32 0, i32 17
  %30 = load ptr, ptr %29, align 8
  %31 = load ptr, ptr %6, align 8
  %32 = load i64, ptr %7, align 8
  call void @llvm.memcpy.p0.p0.i64(ptr align 1 %30, ptr align 1 %31, i64 %32, i1 false)
  %33 = load i64, ptr %7, align 8
  %34 = getelementptr inbounds i8, ptr %30, i64 %33
  %35 = load ptr, ptr %5, align 8
  %36 = getelementptr inbounds %struct.lxb_html_tokenizer, ptr %35, i32 0, i32 17
  store ptr %34, ptr %36, align 8
  store i32 0, ptr %4, align 4
  br label %37

37:                                               ; preds = %27, %22
  %38 = load i32, ptr %4, align 4
  ret i32 %38
}

; Function Attrs: nounwind uwtable
define internal void @lxb_html_token_clean(ptr noundef %0) #0 {
  %2 = alloca ptr, align 8
  store ptr %0, ptr %2, align 8
  %3 = load ptr, ptr %2, align 8
  call void @llvm.memset.p0.i64(ptr align 8 %3, i8 0, i64 96, i1 false)
  ret void
}

; Function Attrs: nounwind uwtable
define internal ptr @lxb_html_tokenizer_state_comment_end(ptr noundef %0, ptr noundef %1, ptr noundef %2) #0 {
  %4 = alloca ptr, align 8
  %5 = alloca ptr, align 8
  %6 = alloca ptr, align 8
  %7 = alloca ptr, align 8
  store ptr %0, ptr %5, align 8
  store ptr %1, ptr %6, align 8
  store ptr %2, ptr %7, align 8
  %8 = load ptr, ptr %6, align 8
  %9 = load i8, ptr %8, align 1
  %10 = zext i8 %9 to i32
  %11 = icmp eq i32 %10, 62
  br i1 %11, label %12, label %66

12:                                               ; preds = %3
  %13 = load ptr, ptr %5, align 8
  %14 = getelementptr inbounds %struct.lxb_html_tokenizer, ptr %13, i32 0, i32 0
  store ptr @lxb_html_tokenizer_state_data_before, ptr %14, align 8
  br label %15

15:                                               ; preds = %12
  %16 = load ptr, ptr %5, align 8
  %17 = getelementptr inbounds %struct.lxb_html_tokenizer, ptr %16, i32 0, i32 16
  %18 = load ptr, ptr %17, align 8
  %19 = load ptr, ptr %5, align 8
  %20 = getelementptr inbounds %struct.lxb_html_tokenizer, ptr %19, i32 0, i32 8
  %21 = load ptr, ptr %20, align 8
  %22 = getelementptr inbounds %struct.lxb_html_token_t, ptr %21, i32 0, i32 4
  store ptr %18, ptr %22, align 8
  %23 = load ptr, ptr %5, align 8
  %24 = getelementptr inbounds %struct.lxb_html_tokenizer, ptr %23, i32 0, i32 17
  %25 = load ptr, ptr %24, align 8
  %26 = load ptr, ptr %5, align 8
  %27 = getelementptr inbounds %struct.lxb_html_tokenizer, ptr %26, i32 0, i32 8
  %28 = load ptr, ptr %27, align 8
  %29 = getelementptr inbounds %struct.lxb_html_token_t, ptr %28, i32 0, i32 5
  store ptr %25, ptr %29, align 8
  br label %30

30:                                               ; preds = %15
  br label %31

31:                                               ; preds = %30
  %32 = load ptr, ptr %5, align 8
  %33 = getelementptr inbounds %struct.lxb_html_tokenizer, ptr %32, i32 0, i32 2
  %34 = load ptr, ptr %33, align 8
  %35 = load ptr, ptr %5, align 8
  %36 = load ptr, ptr %5, align 8
  %37 = getelementptr inbounds %struct.lxb_html_tokenizer, ptr %36, i32 0, i32 8
  %38 = load ptr, ptr %37, align 8
  %39 = load ptr, ptr %5, align 8
  %40 = getelementptr inbounds %struct.lxb_html_tokenizer, ptr %39, i32 0, i32 3
  %41 = load ptr, ptr %40, align 8
  %42 = call ptr %34(ptr noundef %35, ptr noundef %38, ptr noundef %41)
  %43 = load ptr, ptr %5, align 8
  %44 = getelementptr inbounds %struct.lxb_html_tokenizer, ptr %43, i32 0, i32 8
  store ptr %42, ptr %44, align 8
  %45 = load ptr, ptr %5, align 8
  %46 = getelementptr inbounds %struct.lxb_html_tokenizer, ptr %45, i32 0, i32 8
  %47 = load ptr, ptr %46, align 8
  %48 = icmp eq ptr %47, null
  br i1 %48, label %49, label %59

49:                                               ; preds = %31
  %50 = load ptr, ptr %5, align 8
  %51 = getelementptr inbounds %struct.lxb_html_tokenizer, ptr %50, i32 0, i32 31
  %52 = load i32, ptr %51, align 8
  %53 = icmp eq i32 %52, 0
  br i1 %53, label %54, label %57

54:                                               ; preds = %49
  %55 = load ptr, ptr %5, align 8
  %56 = getelementptr inbounds %struct.lxb_html_tokenizer, ptr %55, i32 0, i32 31
  store i32 1, ptr %56, align 8
  br label %57

57:                                               ; preds = %54, %49
  %58 = load ptr, ptr %7, align 8
  store ptr %58, ptr %4, align 8
  br label %177

59:                                               ; preds = %31
  %60 = load ptr, ptr %5, align 8
  %61 = getelementptr inbounds %struct.lxb_html_tokenizer, ptr %60, i32 0, i32 8
  %62 = load ptr, ptr %61, align 8
  call void @lxb_html_token_clean(ptr noundef %62)
  br label %63

63:                                               ; preds = %59
  %64 = load ptr, ptr %6, align 8
  %65 = getelementptr inbounds i8, ptr %64, i64 1
  store ptr %65, ptr %4, align 8
  br label %177

66:                                               ; preds = %3
  %67 = load ptr, ptr %6, align 8
  %68 = load i8, ptr %67, align 1
  %69 = zext i8 %68 to i32
  %70 = icmp eq i32 %69, 33
  br i1 %70, label %71, label %76

71:                                               ; preds = %66
  %72 = load ptr, ptr %5, align 8
  %73 = getelementptr inbounds %struct.lxb_html_tokenizer, ptr %72, i32 0, i32 0
  store ptr @lxb_html_tokenizer_state_comment_end_bang, ptr %73, align 8
  %74 = load ptr, ptr %6, align 8
  %75 = getelementptr inbounds i8, ptr %74, i64 1
  store ptr %75, ptr %4, align 8
  br label %177

76:                                               ; preds = %66
  %77 = load ptr, ptr %6, align 8
  %78 = load i8, ptr %77, align 1
  %79 = zext i8 %78 to i32
  %80 = icmp eq i32 %79, 45
  br i1 %80, label %81, label %93

81:                                               ; preds = %76
  br label %82

82:                                               ; preds = %81
  %83 = load ptr, ptr %5, align 8
  %84 = load ptr, ptr %6, align 8
  %85 = call i32 @lxb_html_tokenizer_temp_append(ptr noundef %83, ptr noundef %84, i64 noundef 1)
  %86 = icmp ne i32 %85, 0
  br i1 %86, label %87, label %89

87:                                               ; preds = %82
  %88 = load ptr, ptr %7, align 8
  store ptr %88, ptr %4, align 8
  br label %177

89:                                               ; preds = %82
  br label %90

90:                                               ; preds = %89
  %91 = load ptr, ptr %6, align 8
  %92 = getelementptr inbounds i8, ptr %91, i64 1
  store ptr %92, ptr %4, align 8
  br label %177

93:                                               ; preds = %76
  %94 = load ptr, ptr %6, align 8
  %95 = load i8, ptr %94, align 1
  %96 = zext i8 %95 to i32
  %97 = icmp eq i32 %96, 0
  br i1 %97, label %98, label %162

98:                                               ; preds = %93
  %99 = load ptr, ptr %5, align 8
  %100 = getelementptr inbounds %struct.lxb_html_tokenizer, ptr %99, i32 0, i32 32
  %101 = load i8, ptr %100, align 4
  %102 = trunc i8 %101 to i1
  br i1 %102, label %103, label %161

103:                                              ; preds = %98
  %104 = load ptr, ptr %5, align 8
  %105 = getelementptr inbounds %struct.lxb_html_tokenizer, ptr %104, i32 0, i32 11
  %106 = load ptr, ptr %105, align 8
  %107 = load ptr, ptr %5, align 8
  %108 = getelementptr inbounds %struct.lxb_html_tokenizer, ptr %107, i32 0, i32 20
  %109 = load ptr, ptr %108, align 8
  %110 = call ptr @lxb_html_tokenizer_error_add(ptr noundef %106, ptr noundef %109, i32 noundef 13)
  br label %111

111:                                              ; preds = %103
  %112 = load ptr, ptr %5, align 8
  %113 = getelementptr inbounds %struct.lxb_html_tokenizer, ptr %112, i32 0, i32 16
  %114 = load ptr, ptr %113, align 8
  %115 = load ptr, ptr %5, align 8
  %116 = getelementptr inbounds %struct.lxb_html_tokenizer, ptr %115, i32 0, i32 8
  %117 = load ptr, ptr %116, align 8
  %118 = getelementptr inbounds %struct.lxb_html_token_t, ptr %117, i32 0, i32 4
  store ptr %114, ptr %118, align 8
  %119 = load ptr, ptr %5, align 8
  %120 = getelementptr inbounds %struct.lxb_html_tokenizer, ptr %119, i32 0, i32 17
  %121 = load ptr, ptr %120, align 8
  %122 = load ptr, ptr %5, align 8
  %123 = getelementptr inbounds %struct.lxb_html_tokenizer, ptr %122, i32 0, i32 8
  %124 = load ptr, ptr %123, align 8
  %125 = getelementptr inbounds %struct.lxb_html_token_t, ptr %124, i32 0, i32 5
  store ptr %121, ptr %125, align 8
  br label %126

126:                                              ; preds = %111
  br label %127

127:                                              ; preds = %126
  %128 = load ptr, ptr %5, align 8
  %129 = getelementptr inbounds %struct.lxb_html_tokenizer, ptr %128, i32 0, i32 2
  %130 = load ptr, ptr %129, align 8
  %131 = load ptr, ptr %5, align 8
  %132 = load ptr, ptr %5, align 8
  %133 = getelementptr inbounds %struct.lxb_html_tokenizer, ptr %132, i32 0, i32 8
  %134 = load ptr, ptr %133, align 8
  %135 = load ptr, ptr %5, align 8
  %136 = getelementptr inbounds %struct.lxb_html_tokenizer, ptr %135, i32 0, i32 3
  %137 = load ptr, ptr %136, align 8
  %138 = call ptr %130(ptr noundef %131, ptr noundef %134, ptr noundef %137)
  %139 = load ptr, ptr %5, align 8
  %140 = getelementptr inbounds %struct.lxb_html_tokenizer, ptr %139, i32 0, i32 8
  store ptr %138, ptr %140, align 8
  %141 = load ptr, ptr %5, align 8
  %142 = getelementptr inbounds %struct.lxb_html_tokenizer, ptr %141, i32 0, i32 8
  %143 = load ptr, ptr %142, align 8
  %144 = icmp eq ptr %143, null
  br i1 %144, label %145, label %155

145:                                              ; preds = %127
  %146 = load ptr, ptr %5, align 8
  %147 = getelementptr inbounds %struct.lxb_html_tokenizer, ptr %146, i32 0, i32 31
  %148 = load i32, ptr %147, align 8
  %149 = icmp eq i32 %148, 0
  br i1 %149, label %150, label %153

150:                                              ; preds = %145
  %151 = load ptr, ptr %5, align 8
  %152 = getelementptr inbounds %struct.lxb_html_tokenizer, ptr %151, i32 0, i32 31
  store i32 1, ptr %152, align 8
  br label %153

153:                                              ; preds = %150, %145
  %154 = load ptr, ptr %7, align 8
  store ptr %154, ptr %4, align 8
  br label %177

155:                                              ; preds = %127
  %156 = load ptr, ptr %5, align 8
  %157 = getelementptr inbounds %struct.lxb_html_tokenizer, ptr %156, i32 0, i32 8
  %158 = load ptr, ptr %157, align 8
  call void @lxb_html_token_clean(ptr noundef %158)
  br label %159

159:                                              ; preds = %155
  %160 = load ptr, ptr %7, align 8
  store ptr %160, ptr %4, align 8
  br label %177

161:                                              ; preds = %98
  br label %162

162:                                              ; preds = %161, %93
  br label %163

163:                                              ; preds = %162
  br label %164

164:                                              ; preds = %163
  br label %165

165:                                              ; preds = %164
  br label %166

166:                                              ; preds = %165
  %167 = load ptr, ptr %5, align 8
  %168 = call i32 @lxb_html_tokenizer_temp_append(ptr noundef %167, ptr noundef @.str.1, i64 noundef 2)
  %169 = icmp ne i32 %168, 0
  br i1 %169, label %170, label %172

170:                                              ; preds = %166
  %171 = load ptr, ptr %7, align 8
  store ptr %171, ptr %4, align 8
  br label %177

172:                                              ; preds = %166
  br label %173

173:                                              ; preds = %172
  %174 = load ptr, ptr %5, align 8
  %175 = getelementptr inbounds %struct.lxb_html_tokenizer, ptr %174, i32 0, i32 0
  store ptr @lxb_html_tokenizer_state_comment, ptr %175, align 8
  %176 = load ptr, ptr %6, align 8
  store ptr %176, ptr %4, align 8
  br label %177

177:                                              ; preds = %173, %170, %159, %153, %90, %87, %71, %63, %57
  %178 = load ptr, ptr %4, align 8
  ret ptr %178
}