; Function Attrs: nounwind uwtable
define internal ptr @lxb_html_tokenizer_state_comment_end(ptr noundef %0, ptr noundef readonly %1, ptr noundef readnone %2) #0 {
  %4 = load i8, ptr %1, align 1
  switch i8 %4, label %89 [
    i8 62, label %5
    i8 33, label %29
    i8 45, label %31
    i8 0, label %57
  ]

5:                                                ; preds = %3
  store ptr @lxb_html_tokenizer_state_data_before, ptr %0, align 8
  %6 = getelementptr inbounds i8, ptr %0, i64 128
  %7 = load ptr, ptr %6, align 8
  %8 = getelementptr inbounds i8, ptr %0, i64 64
  %9 = load ptr, ptr %8, align 8
  %10 = getelementptr inbounds i8, ptr %9, i64 32
  store ptr %7, ptr %10, align 8
  %11 = getelementptr inbounds i8, ptr %0, i64 136
  %12 = load ptr, ptr %11, align 8
  %13 = load ptr, ptr %8, align 8
  %14 = getelementptr inbounds i8, ptr %13, i64 40
  store ptr %12, ptr %14, align 8
  %15 = getelementptr inbounds i8, ptr %0, i64 16
  %16 = load ptr, ptr %15, align 8
  %17 = load ptr, ptr %8, align 8
  %18 = getelementptr inbounds i8, ptr %0, i64 24
  %19 = load ptr, ptr %18, align 8
  %20 = tail call ptr %16(ptr noundef nonnull %0, ptr noundef %17, ptr noundef %19) #5
  store ptr %20, ptr %8, align 8
  %21 = icmp eq ptr %20, null
  br i1 %21, label %22, label %27

22:                                               ; preds = %5
  %23 = getelementptr inbounds i8, ptr %0, i64 232
  %24 = load i32, ptr %23, align 8
  %25 = icmp eq i32 %24, 0
  br i1 %25, label %26, label %113

26:                                               ; preds = %22
  store i32 1, ptr %23, align 8
  br label %113

27:                                               ; preds = %5
  tail call void @llvm.memset.p0.i64(ptr noundef nonnull align 8 dereferenceable(96) %20, i8 0, i64 96, i1 false)
  %28 = getelementptr inbounds i8, ptr %1, i64 1
  br label %113

29:                                               ; preds = %3
  store ptr @lxb_html_tokenizer_state_comment_end_bang, ptr %0, align 8
  %30 = getelementptr inbounds i8, ptr %1, i64 1
  br label %113

31:                                               ; preds = %3
  %32 = getelementptr inbounds i8, ptr %0, i64 136
  %33 = load ptr, ptr %32, align 8
  %34 = getelementptr inbounds i8, ptr %33, i64 1
  %35 = getelementptr inbounds i8, ptr %0, i64 144
  %36 = load ptr, ptr %35, align 8
  %37 = icmp ugt ptr %34, %36
  br i1 %37, label %38, label %52

38:                                               ; preds = %31
  %39 = getelementptr inbounds i8, ptr %0, i64 128
  %40 = load ptr, ptr %39, align 8
  %41 = ptrtoint ptr %40 to i64
  %42 = ptrtoint ptr %36 to i64
  %43 = add i64 %42, 4097
  %44 = sub i64 %43, %41
  %45 = tail call ptr @lexbor_realloc(ptr noundef %40, i64 noundef %44) #5
  store ptr %45, ptr %39, align 8
  %46 = icmp eq ptr %45, null
  br i1 %46, label %lxb_html_tokenizer_temp_append.exit, label %lxb_html_tokenizer_temp_realloc.exit.thread.i

lxb_html_tokenizer_temp_realloc.exit.thread.i:    ; preds = %38
  %47 = ptrtoint ptr %33 to i64
  %48 = sub i64 %47, %41
  %49 = getelementptr inbounds i8, ptr %45, i64 %48
  store ptr %49, ptr %32, align 8
  %50 = getelementptr inbounds i8, ptr %45, i64 %44
  store ptr %50, ptr %35, align 8
  %.pre = load i8, ptr %1, align 1
  br label %52

lxb_html_tokenizer_temp_append.exit:              ; preds = %38
  %51 = getelementptr inbounds i8, ptr %0, i64 232
  store i32 2, ptr %51, align 8
  br label %113

52:                                               ; preds = %31, %lxb_html_tokenizer_temp_realloc.exit.thread.i
  %53 = phi i8 [ %.pre, %lxb_html_tokenizer_temp_realloc.exit.thread.i ], [ 45, %31 ]
  %54 = phi ptr [ %49, %lxb_html_tokenizer_temp_realloc.exit.thread.i ], [ %33, %31 ]
  store i8 %53, ptr %54, align 1
  %55 = getelementptr inbounds i8, ptr %54, i64 1
  store ptr %55, ptr %32, align 8
  %56 = getelementptr inbounds i8, ptr %1, i64 1
  br label %113

57:                                               ; preds = %3
  %58 = getelementptr inbounds i8, ptr %0, i64 236
  %59 = load i8, ptr %58, align 4
  %60 = and i8 %59, 1
  %.not = icmp eq i8 %60, 0
  br i1 %.not, label %89, label %61

61:                                               ; preds = %57
  %62 = getelementptr inbounds i8, ptr %0, i64 88
  %63 = load ptr, ptr %62, align 8
  %64 = getelementptr inbounds i8, ptr %0, i64 160
  %65 = load ptr, ptr %64, align 8
  %66 = tail call ptr @lxb_html_tokenizer_error_add(ptr noundef %63, ptr noundef %65, i32 noundef 13) #5
  %67 = getelementptr inbounds i8, ptr %0, i64 128
  %68 = load ptr, ptr %67, align 8
  %69 = getelementptr inbounds i8, ptr %0, i64 64
  %70 = load ptr, ptr %69, align 8
  %71 = getelementptr inbounds i8, ptr %70, i64 32
  store ptr %68, ptr %71, align 8
  %72 = getelementptr inbounds i8, ptr %0, i64 136
  %73 = load ptr, ptr %72, align 8
  %74 = load ptr, ptr %69, align 8
  %75 = getelementptr inbounds i8, ptr %74, i64 40
  store ptr %73, ptr %75, align 8
  %76 = getelementptr inbounds i8, ptr %0, i64 16
  %77 = load ptr, ptr %76, align 8
  %78 = load ptr, ptr %69, align 8
  %79 = getelementptr inbounds i8, ptr %0, i64 24
  %80 = load ptr, ptr %79, align 8
  %81 = tail call ptr %77(ptr noundef nonnull %0, ptr noundef %78, ptr noundef %80) #5
  store ptr %81, ptr %69, align 8
  %82 = icmp eq ptr %81, null
  br i1 %82, label %83, label %88

83:                                               ; preds = %61
  %84 = getelementptr inbounds i8, ptr %0, i64 232
  %85 = load i32, ptr %84, align 8
  %86 = icmp eq i32 %85, 0
  br i1 %86, label %87, label %113

87:                                               ; preds = %83
  store i32 1, ptr %84, align 8
  br label %113

88:                                               ; preds = %61
  tail call void @llvm.memset.p0.i64(ptr noundef nonnull align 8 dereferenceable(96) %81, i8 0, i64 96, i1 false)
  br label %113

89:                                               ; preds = %3, %57
  %90 = getelementptr inbounds i8, ptr %0, i64 136
  %91 = load ptr, ptr %90, align 8
  %92 = getelementptr inbounds i8, ptr %91, i64 2
  %93 = getelementptr inbounds i8, ptr %0, i64 144
  %94 = load ptr, ptr %93, align 8
  %95 = icmp ugt ptr %92, %94
  br i1 %95, label %96, label %110

96:                                               ; preds = %89
  %97 = getelementptr inbounds i8, ptr %0, i64 128
  %98 = load ptr, ptr %97, align 8
  %99 = ptrtoint ptr %98 to i64
  %100 = ptrtoint ptr %94 to i64
  %101 = add i64 %100, 4098
  %102 = sub i64 %101, %99
  %103 = tail call ptr @lexbor_realloc(ptr noundef %98, i64 noundef %102) #5
  store ptr %103, ptr %97, align 8
  %104 = icmp eq ptr %103, null
  br i1 %104, label %lxb_html_tokenizer_temp_append.exit56, label %lxb_html_tokenizer_temp_realloc.exit.thread.i55

lxb_html_tokenizer_temp_realloc.exit.thread.i55:  ; preds = %96
  %105 = ptrtoint ptr %91 to i64
  %106 = sub i64 %105, %99
  %107 = getelementptr inbounds i8, ptr %103, i64 %106
  %108 = getelementptr inbounds i8, ptr %103, i64 %102
  store ptr %108, ptr %93, align 8
  br label %110

lxb_html_tokenizer_temp_append.exit56:            ; preds = %96
  %109 = getelementptr inbounds i8, ptr %0, i64 232
  store i32 2, ptr %109, align 8
  br label %113

110:                                              ; preds = %89, %lxb_html_tokenizer_temp_realloc.exit.thread.i55
  %111 = phi ptr [ %107, %lxb_html_tokenizer_temp_realloc.exit.thread.i55 ], [ %91, %89 ]
  store i16 11565, ptr %111, align 1
  %112 = getelementptr inbounds i8, ptr %111, i64 2
  store ptr %112, ptr %90, align 8
  store ptr @lxb_html_tokenizer_state_comment, ptr %0, align 8
  br label %113

113:                                              ; preds = %lxb_html_tokenizer_temp_append.exit56, %52, %lxb_html_tokenizer_temp_append.exit, %83, %87, %22, %26, %110, %88, %29, %27
  %.0 = phi ptr [ %28, %27 ], [ %30, %29 ], [ %2, %88 ], [ %1, %110 ], [ %2, %26 ], [ %2, %22 ], [ %2, %87 ], [ %2, %83 ], [ %2, %lxb_html_tokenizer_temp_append.exit56 ], [ %56, %52 ], [ %2, %lxb_html_tokenizer_temp_append.exit ]
  ret ptr %.0
}